target datalayout = "e-m:e-p270:32:32-p271:32:32-p272:64:64-i64:64-i128:128-f80:128-n8:16:32:64-S128"
target triple = "x86_64-pc-linux-gnu"

%"struct.Gluco::Solver::WatcherDeleted" = type { ptr }
%"struct.Gluco::Solver::VarOrderLt" = type { ptr }
%"class.Gluco::Solver" = type { ptr, i32, ptr, ptr, i32, i8, ptr, i64, %"class.Gluco::vec", %"class.Gluco::vec.0", i32, %"class.Gluco::vec.1", %"class.Gluco::vec.0", i32, i32, i32, double, double, double, double, i32, i32, i32, i32, i32, i32, double, double, double, double, i32, i32, i8, i8, double, ptr, i8, i64, i64, i64, i64, i64, i64, i64, i64, i64, i64, i64, i64, i64, i64, i64, i64, i64, i64, i64, i64, i64, i64, i32, i8, double, %"class.Gluco::vec.2", double, %"class.Gluco::OccLists", %"class.Gluco::OccLists", %"class.Gluco::vec.5", %"class.Gluco::vec.5", %"class.Gluco::vec.1", %"class.Gluco::vec.4", %"class.Gluco::vec.4", %"class.Gluco::vec.0", %"class.Gluco::vec", %"class.Gluco::vec", %"class.Gluco::vec.6", i32, i32, i64, %"class.Gluco::vec.0", %"class.Gluco::Heap", double, i8, %"class.Gluco::vec.5", %"class.Gluco::vec.0", %"class.Gluco::ClauseAllocator", i32, %"class.Gluco::bqueue", %"class.Gluco::bqueue", float, i32, %"class.Gluco::vec.4", %"class.Gluco::vec.0", %"class.Gluco::vec.0", %"class.Gluco::vec.0", i32, double, double, i32, i64, i64, i8, i32, i32, double, double, i32, i32, %"class.Gluco::vec", %"class.Gluco::vec" }
%"class.Gluco::vec.2" = type { ptr, i32, i32 }
%"class.Gluco::OccLists" = type { %"class.Gluco::vec.3", %"class.Gluco::vec.4", %"class.Gluco::vec.0", %"struct.Gluco::Solver::WatcherDeleted" }
%"class.Gluco::vec.3" = type { ptr, i32, i32 }
%"class.Gluco::vec.1" = type { ptr, i32, i32 }
%"class.Gluco::vec.6" = type { ptr, i32, i32 }
%"class.Gluco::Heap" = type { %"struct.Gluco::Solver::VarOrderLt", %"class.Gluco::vec", %"class.Gluco::vec" }
%"class.Gluco::vec.5" = type { ptr, i32, i32 }
%"class.Gluco::ClauseAllocator" = type { %"class.Gluco::RegionAllocator.base", i8, [3 x i8] }
%"class.Gluco::RegionAllocator.base" = type <{ ptr, i32, i32, i32 }>
%"class.Gluco::bqueue" = type { %"class.Gluco::vec.5", i32, i32, i64, i32, i32, i8, double, double }
%"class.Gluco::vec.4" = type { ptr, i32, i32 }
%"class.Gluco::vec.0" = type { ptr, i32, i32 }
%"class.Gluco::vec" = type { ptr, i32, i32 }

; Function Attrs: mustprogress nounwind uwtable
define linkonce_odr noundef i32 @_ZNK5Gluco3vecIiE4sizeEv(ptr noundef nonnull align 8 dereferenceable(16) %0) #2 comdat align 2 {
  %2 = alloca ptr, align 8
  store ptr %0, ptr %2, align 8
  %3 = load ptr, ptr %2, align 8
  %4 = getelementptr inbounds %"class.Gluco::vec", ptr %3, i32 0, i32 1
  %5 = load i32, ptr %4, align 8
  ret i32 %5
}

; Function Attrs: mustprogress nounwind uwtable
define linkonce_odr noundef i32 @_ZNK5Gluco3vecINS_6Solver7VarDataEE4sizeEv(ptr noundef nonnull align 8 dereferenceable(16) %0) #2 comdat align 2 {
  %2 = alloca ptr, align 8
  store ptr %0, ptr %2, align 8
  %3 = load ptr, ptr %2, align 8
  %4 = getelementptr inbounds %"class.Gluco::vec.6", ptr %3, i32 0, i32 1
  %5 = load i32, ptr %4, align 8
  ret i32 %5
}

; Function Attrs: mustprogress nounwind uwtable
define linkonce_odr noundef double @_ZSt3powIdiEN9__gnu_cxx9__promoteIDTplcvNS1_IT_Xsr3std12__is_integerIS2_EE7__valueEE6__typeELi0EcvNS1_IT0_Xsr3std12__is_integerIS5_EE7__valueEE6__typeELi0EEXsr3std12__is_integerIS8_EE7__valueEE6__typeES2_S5_(double noundef %0, i32 noundef %1) #2 comdat {
  %3 = alloca double, align 8
  %4 = alloca i32, align 4
  store double %0, ptr %3, align 8
  store i32 %1, ptr %4, align 4
  %5 = load double, ptr %3, align 8
  %6 = load i32, ptr %4, align 4
  %7 = sitofp i32 %6 to double
  %8 = call double @pow(double noundef %5, double noundef %7) #3
  ret double %8
}

; Function Attrs: mustprogress nounwind uwtable
define linkonce_odr noundef i32 @_ZNK5Gluco3vecINS_3LitEE4sizeEv(ptr noundef nonnull align 8 dereferenceable(16) %0) #2 comdat align 2 {
  %2 = alloca ptr, align 8
  store ptr %0, ptr %2, align 8
  %3 = load ptr, ptr %2, align 8
  %4 = getelementptr inbounds %"class.Gluco::vec.0", ptr %3, i32 0, i32 1
  %5 = load i32, ptr %4, align 8
  ret i32 %5
}

; Function Attrs: mustprogress nounwind uwtable
define linkonce_odr noundef nonnull align 4 dereferenceable(4) ptr @_ZNK5Gluco3vecIiEixEi(ptr noundef nonnull align 8 dereferenceable(16) %0, i32 noundef %1) #2 comdat align 2 {
  %3 = alloca ptr, align 8
  %4 = alloca i32, align 4
  store ptr %0, ptr %3, align 8
  store i32 %1, ptr %4, align 4
  %5 = load ptr, ptr %3, align 8
  %6 = getelementptr inbounds %"class.Gluco::vec", ptr %5, i32 0, i32 0
  %7 = load ptr, ptr %6, align 8
  %8 = load i32, ptr %4, align 4
  %9 = sext i32 %8 to i64
  %10 = getelementptr inbounds i32, ptr %7, i64 %9
  ret ptr %10
}

; Function Attrs: mustprogress uwtable
define linkonce_odr noundef i32 @_ZNK5Gluco6Solver13decisionLevelEv(ptr noundef nonnull align 8 dereferenceable(1216) %0) #1 comdat align 2 {
  %2 = alloca ptr, align 8
  store ptr %0, ptr %2, align 8
  %3 = load ptr, ptr %2, align 8
  %4 = getelementptr inbounds %"class.Gluco::Solver", ptr %3, i32 0, i32 73
  %5 = call noundef i32 @_ZNK5Gluco3vecIiE4sizeEv(ptr noundef nonnull align 8 dereferenceable(16) %4)
  ret i32 %5
}

; Function Attrs: mustprogress uwtable
define linkonce_odr noundef i32 @_ZNK5Gluco6Solver5nVarsEv(ptr noundef nonnull align 8 dereferenceable(1216) %0) #1 comdat align 2 {
  %2 = alloca ptr, align 8
  store ptr %0, ptr %2, align 8
  %3 = load ptr, ptr %2, align 8
  %4 = getelementptr inbounds %"class.Gluco::Solver", ptr %3, i32 0, i32 74
  %5 = call noundef i32 @_ZNK5Gluco3vecINS_6Solver7VarDataEE4sizeEv(ptr noundef nonnull align 8 dereferenceable(16) %4)
  ret i32 %5
}

; Function Attrs: mustprogress uwtable
define noundef double @_ZNK5Gluco6Solver16progressEstimateEv(ptr noundef nonnull align 8 dereferenceable(1216) %0) #1 align 2 {
  %2 = alloca ptr, align 8
  %3 = alloca double, align 8
  %4 = alloca double, align 8
  %5 = alloca i32, align 4
  %6 = alloca i32, align 4
  %7 = alloca i32, align 4
  store ptr %0, ptr %2, align 8
  %8 = load ptr, ptr %2, align 8
  store double 0.000000e+00, ptr %3, align 8
  %9 = call noundef i32 @_ZNK5Gluco6Solver5nVarsEv(ptr noundef nonnull align 8 dereferenceable(1216) %8)
  %10 = sitofp i32 %9 to double
  %11 = fdiv double 1.000000e+00, %10
  store double %11, ptr %4, align 8
  store i32 0, ptr %5, align 4
  br label %12

12:                                               ; preds = %50, %1
  %13 = load i32, ptr %5, align 4
  %14 = call noundef i32 @_ZNK5Gluco6Solver13decisionLevelEv(ptr noundef nonnull align 8 dereferenceable(1216) %8)
  %15 = icmp sle i32 %13, %14
  br i1 %15, label %16, label %53

16:                                               ; preds = %12
  %17 = load i32, ptr %5, align 4
  %18 = icmp eq i32 %17, 0
  br i1 %18, label %19, label %20

19:                                               ; preds = %16
  br label %26

20:                                               ; preds = %16
  %21 = getelementptr inbounds %"class.Gluco::Solver", ptr %8, i32 0, i32 73
  %22 = load i32, ptr %5, align 4
  %23 = sub nsw i32 %22, 1
  %24 = call noundef nonnull align 4 dereferenceable(4) ptr @_ZNK5Gluco3vecIiEixEi(ptr noundef nonnull align 8 dereferenceable(16) %21, i32 noundef %23)
  %25 = load i32, ptr %24, align 4
  br label %26

26:                                               ; preds = %20, %19
  %27 = phi i32 [ 0, %19 ], [ %25, %20 ]
  store i32 %27, ptr %6, align 4
  %28 = load i32, ptr %5, align 4
  %29 = call noundef i32 @_ZNK5Gluco6Solver13decisionLevelEv(ptr noundef nonnull align 8 dereferenceable(1216) %8)
  %30 = icmp eq i32 %28, %29
  br i1 %30, label %31, label %34

31:                                               ; preds = %26
  %32 = getelementptr inbounds %"class.Gluco::Solver", ptr %8, i32 0, i32 71
  %33 = call noundef i32 @_ZNK5Gluco3vecINS_3LitEE4sizeEv(ptr noundef nonnull align 8 dereferenceable(16) %32)
  br label %39

34:                                               ; preds = %26
  %35 = getelementptr inbounds %"class.Gluco::Solver", ptr %8, i32 0, i32 73
  %36 = load i32, ptr %5, align 4
  %37 = call noundef nonnull align 4 dereferenceable(4) ptr @_ZNK5Gluco3vecIiEixEi(ptr noundef nonnull align 8 dereferenceable(16) %35, i32 noundef %36)
  %38 = load i32, ptr %37, align 4
  br label %39

39:                                               ; preds = %34, %31
  %40 = phi i32 [ %33, %31 ], [ %38, %34 ]
  store i32 %40, ptr %7, align 4
  %41 = load double, ptr %4, align 8
  %42 = load i32, ptr %5, align 4
  %43 = call noundef double @_ZSt3powIdiEN9__gnu_cxx9__promoteIDTplcvNS1_IT_Xsr3std12__is_integerIS2_EE7__valueEE6__typeELi0EcvNS1_IT0_Xsr3std12__is_integerIS5_EE7__valueEE6__typeELi0EEXsr3std12__is_integerIS8_EE7__valueEE6__typeES2_S5_(double noundef %41, i32 noundef %42)
  %44 = load i32, ptr %7, align 4
  %45 = load i32, ptr %6, align 4
  %46 = sub nsw i32 %44, %45
  %47 = sitofp i32 %46 to double
  %48 = load double, ptr %3, align 8
  %49 = call double @llvm.fmuladd.f64(double %43, double %47, double %48)
  store double %49, ptr %3, align 8
  br label %50

50:                                               ; preds = %39
  %51 = load i32, ptr %5, align 4
  %52 = add nsw i32 %51, 1
  store i32 %52, ptr %5, align 4
  br label %12, !llvm.loop !63

53:                                               ; preds = %12
  %54 = load double, ptr %3, align 8
  %55 = call noundef i32 @_ZNK5Gluco6Solver5nVarsEv(ptr noundef nonnull align 8 dereferenceable(1216) %8)
  %56 = sitofp i32 %55 to double
  %57 = fdiv double %54, %56
  ret double %57
}